target datalayout = "e-m:e-p270:32:32-p271:32:32-p272:64:64-i64:64-i128:128-f80:128-n8:16:32:64-S128"
target triple = "x86_64-pc-linux-gnu"

%struct.pw_cb_data = type { ptr, ptr }

@ui_method = internal global ptr null, align 8
@.str.1 = private unnamed_addr constant [12 x i8] c"pass phrase\00", align 1
@bio_err = external global ptr, align 8
@.str.2 = private unnamed_addr constant [15 x i8] c"Out of memory\0A\00", align 1
@.str.3 = private unnamed_addr constant [16 x i8] c"password buffer\00", align 1
@.str.4 = private unnamed_addr constant [30 x i8] c"../openssl/apps/lib/apps_ui.c\00", align 1
@.str.5 = private unnamed_addr constant [22 x i8] c"User interface error\0A\00", align 1
@.str.6 = private unnamed_addr constant [10 x i8] c"aborted!\0A\00", align 1
@.str.8 = private unnamed_addr constant [36 x i8] c"Could not allocate %d bytes for %s\0A\00", align 1

; Function Attrs: nounwind uwtable
define internal ptr @ui_malloc(i32 noundef %0, ptr noundef %1) #0 {
  %3 = alloca i32, align 4
  %4 = alloca ptr, align 8
  %5 = alloca ptr, align 8
  store i32 %0, ptr %3, align 4, !tbaa !21
  store ptr %1, ptr %4, align 8, !tbaa !17
  call void @llvm.lifetime.start.p0(i64 8, ptr %5) #5
  %6 = load i32, ptr %3, align 4, !tbaa !21
  %7 = sext i32 %6 to i64
  %8 = call noalias ptr @CRYPTO_malloc(i64 noundef %7, ptr noundef @.str.4, i32 noundef 154)
  store ptr %8, ptr %5, align 8, !tbaa !11
  %9 = load ptr, ptr %5, align 8, !tbaa !11
  %10 = icmp eq ptr %9, null
  br i1 %10, label %11, label %17

11:                                               ; preds = %2
  %12 = load ptr, ptr @bio_err, align 8, !tbaa !23
  %13 = load i32, ptr %3, align 4, !tbaa !21
  %14 = load ptr, ptr %4, align 8, !tbaa !17
  %15 = call i32 (ptr, ptr, ...) @BIO_printf(ptr noundef %12, ptr noundef @.str.8, i32 noundef %13, ptr noundef %14)
  %16 = load ptr, ptr @bio_err, align 8, !tbaa !23
  call void @ERR_print_errors(ptr noundef %16)
  call void @exit(i32 noundef 1) #7
  unreachable

17:                                               ; preds = %2
  %18 = load ptr, ptr %5, align 8, !tbaa !11
  call void @llvm.lifetime.end.p0(i64 8, ptr %5) #5
  ret ptr %18
}

; Function Attrs: nounwind uwtable
define dso_local i32 @password_callback(ptr noundef %0, i32 noundef %1, i32 noundef %2, ptr noundef %3) #0 {
  %5 = alloca i32, align 4
  %6 = alloca ptr, align 8
  %7 = alloca i32, align 4
  %8 = alloca i32, align 4
  %9 = alloca ptr, align 8
  %10 = alloca i32, align 4
  %11 = alloca ptr, align 8
  %12 = alloca i32, align 4
  %13 = alloca ptr, align 8
  %14 = alloca i32, align 4
  %15 = alloca ptr, align 8
  %16 = alloca ptr, align 8
  %17 = alloca i32, align 4
  store ptr %0, ptr %6, align 8, !tbaa !17
  store i32 %1, ptr %7, align 4, !tbaa !21
  store i32 %2, ptr %8, align 4, !tbaa !21
  store ptr %3, ptr %9, align 8, !tbaa !18
  call void @llvm.lifetime.start.p0(i64 4, ptr %10) #5
  store i32 0, ptr %10, align 4, !tbaa !21
  call void @llvm.lifetime.start.p0(i64 8, ptr %11) #5
  call void @llvm.lifetime.start.p0(i64 4, ptr %12) #5
  store i32 0, ptr %12, align 4, !tbaa !21
  call void @llvm.lifetime.start.p0(i64 8, ptr %13) #5
  store ptr null, ptr %13, align 8, !tbaa !17
  call void @llvm.lifetime.start.p0(i64 4, ptr %14) #5
  store i32 0, ptr %14, align 4, !tbaa !21
  call void @llvm.lifetime.start.p0(i64 8, ptr %15) #5
  store ptr null, ptr %15, align 8, !tbaa !17
  call void @llvm.lifetime.start.p0(i64 8, ptr %16) #5
  %18 = load ptr, ptr @ui_method, align 8, !tbaa !4
  %19 = call ptr @UI_new_method(ptr noundef %18)
  store ptr %19, ptr %11, align 8, !tbaa !9
  %20 = icmp eq ptr %19, null
  br i1 %20, label %21, label %22

21:                                               ; preds = %4
  store i32 0, ptr %5, align 4
  store i32 1, ptr %17, align 4
  br label %125

22:                                               ; preds = %4
  %23 = load ptr, ptr %9, align 8, !tbaa !18
  %24 = icmp ne ptr %23, null
  br i1 %24, label %25, label %34

25:                                               ; preds = %22
  %26 = load ptr, ptr %9, align 8, !tbaa !18
  %27 = getelementptr inbounds nuw %struct.pw_cb_data, ptr %26, i32 0, i32 1
  %28 = load ptr, ptr %27, align 8, !tbaa !20
  %29 = icmp ne ptr %28, null
  br i1 %29, label %30, label %34

30:                                               ; preds = %25
  %31 = load ptr, ptr %9, align 8, !tbaa !18
  %32 = getelementptr inbounds nuw %struct.pw_cb_data, ptr %31, i32 0, i32 1
  %33 = load ptr, ptr %32, align 8, !tbaa !20
  store ptr %33, ptr %15, align 8, !tbaa !17
  br label %34

34:                                               ; preds = %30, %25, %22
  %35 = load ptr, ptr %11, align 8, !tbaa !9
  %36 = load ptr, ptr %15, align 8, !tbaa !17
  %37 = call ptr @UI_construct_prompt(ptr noundef %35, ptr noundef @.str.1, ptr noundef %36)
  store ptr %37, ptr %16, align 8, !tbaa !17
  %38 = load ptr, ptr %16, align 8, !tbaa !17
  %39 = icmp eq ptr %38, null
  br i1 %39, label %40, label %44

40:                                               ; preds = %34
  %41 = load ptr, ptr @bio_err, align 8, !tbaa !23
  %42 = call i32 (ptr, ptr, ...) @BIO_printf(ptr noundef %41, ptr noundef @.str.2)
  %43 = load ptr, ptr %11, align 8, !tbaa !9
  call void @UI_free(ptr noundef %43)
  store i32 0, ptr %5, align 4
  store i32 1, ptr %17, align 4
  br label %125

44:                                               ; preds = %34
  %45 = load i32, ptr %14, align 4, !tbaa !21
  %46 = or i32 %45, 2
  store i32 %46, ptr %14, align 4, !tbaa !21
  %47 = load ptr, ptr %11, align 8, !tbaa !9
  %48 = call i32 @UI_ctrl(ptr noundef %47, i32 noundef 1, i64 noundef 1, ptr noundef null, ptr noundef null)
  %49 = load ptr, ptr %11, align 8, !tbaa !9
  %50 = load ptr, ptr %9, align 8, !tbaa !18
  %51 = call ptr @UI_add_user_data(ptr noundef %49, ptr noundef %50)
  %52 = load ptr, ptr %11, align 8, !tbaa !9
  %53 = load ptr, ptr %16, align 8, !tbaa !17
  %54 = load i32, ptr %14, align 4, !tbaa !21
  %55 = load ptr, ptr %6, align 8, !tbaa !17
  %56 = load i32, ptr %7, align 4, !tbaa !21
  %57 = sub nsw i32 %56, 1
  %58 = call i32 @UI_add_input_string(ptr noundef %52, ptr noundef %53, i32 noundef %54, ptr noundef %55, i32 noundef 4, i32 noundef %57)
  store i32 %58, ptr %12, align 4, !tbaa !21
  %59 = load i32, ptr %12, align 4, !tbaa !21
  %60 = icmp sge i32 %59, 0
  br i1 %60, label %61, label %75

61:                                               ; preds = %44
  %62 = load i32, ptr %8, align 4, !tbaa !21
  %63 = icmp ne i32 %62, 0
  br i1 %63, label %64, label %75

64:                                               ; preds = %61
  %65 = load i32, ptr %7, align 4, !tbaa !21
  %66 = call ptr @ui_malloc(i32 noundef %65, ptr noundef @.str.3)
  store ptr %66, ptr %13, align 8, !tbaa !17
  %67 = load ptr, ptr %11, align 8, !tbaa !9
  %68 = load ptr, ptr %16, align 8, !tbaa !17
  %69 = load i32, ptr %14, align 4, !tbaa !21
  %70 = load ptr, ptr %13, align 8, !tbaa !17
  %71 = load i32, ptr %7, align 4, !tbaa !21
  %72 = sub nsw i32 %71, 1
  %73 = load ptr, ptr %6, align 8, !tbaa !17
  %74 = call i32 @UI_add_verify_string(ptr noundef %67, ptr noundef %68, i32 noundef %69, ptr noundef %70, i32 noundef 4, i32 noundef %72, ptr noundef %73)
  store i32 %74, ptr %12, align 4, !tbaa !21
  br label %75

75:                                               ; preds = %64, %61, %44
  %76 = load i32, ptr %12, align 4, !tbaa !21
  %77 = icmp sge i32 %76, 0
  br i1 %77, label %78, label %92

78:                                               ; preds = %75
  br label %79

79:                                               ; preds = %89, %78
  %80 = load ptr, ptr %11, align 8, !tbaa !9
  %81 = call i32 @UI_process(ptr noundef %80)
  store i32 %81, ptr %12, align 4, !tbaa !21
  br label %82

82:                                               ; preds = %79
  %83 = load i32, ptr %12, align 4, !tbaa !21
  %84 = icmp slt i32 %83, 0
  br i1 %84, label %85, label %89

85:                                               ; preds = %82
  %86 = load ptr, ptr %11, align 8, !tbaa !9
  %87 = call i32 @UI_ctrl(ptr noundef %86, i32 noundef 2, i64 noundef 0, ptr noundef null, ptr noundef null)
  %88 = icmp ne i32 %87, 0
  br label %89

89:                                               ; preds = %85, %82
  %90 = phi i1 [ false, %82 ], [ %88, %85 ]
  br i1 %90, label %79, label %91, !llvm.loop !25

91:                                               ; preds = %89
  br label %92

92:                                               ; preds = %91, %75
  %93 = load ptr, ptr %13, align 8, !tbaa !17
  %94 = load i32, ptr %7, align 4, !tbaa !21
  %95 = zext i32 %94 to i64
  call void @CRYPTO_clear_free(ptr noundef %93, i64 noundef %95, ptr noundef @.str.4, i32 noundef 205)
  %96 = load i32, ptr %12, align 4, !tbaa !21
  %97 = icmp sge i32 %96, 0
  br i1 %97, label %98, label %102

98:                                               ; preds = %92
  %99 = load ptr, ptr %6, align 8, !tbaa !17
  %100 = call i64 @strlen(ptr noundef %99) #6
  %101 = trunc i64 %100 to i32
  store i32 %101, ptr %10, align 4, !tbaa !21
  br label %102

102:                                              ; preds = %98, %92
  %103 = load i32, ptr %12, align 4, !tbaa !21
  %104 = icmp eq i32 %103, -1
  br i1 %104, label %105, label %112

105:                                              ; preds = %102
  %106 = load ptr, ptr @bio_err, align 8, !tbaa !23
  %107 = call i32 (ptr, ptr, ...) @BIO_printf(ptr noundef %106, ptr noundef @.str.5)
  %108 = load ptr, ptr @bio_err, align 8, !tbaa !23
  call void @ERR_print_errors(ptr noundef %108)
  %109 = load ptr, ptr %6, align 8, !tbaa !17
  %110 = load i32, ptr %7, align 4, !tbaa !21
  %111 = zext i32 %110 to i64
  call void @OPENSSL_cleanse(ptr noundef %109, i64 noundef %111)
  store i32 0, ptr %10, align 4, !tbaa !21
  br label %112

112:                                              ; preds = %105, %102
  %113 = load i32, ptr %12, align 4, !tbaa !21
  %114 = icmp eq i32 %113, -2
  br i1 %114, label %115, label %121

115:                                              ; preds = %112
  %116 = load ptr, ptr @bio_err, align 8, !tbaa !23
  %117 = call i32 (ptr, ptr, ...) @BIO_printf(ptr noundef %116, ptr noundef @.str.6)
  %118 = load ptr, ptr %6, align 8, !tbaa !17
  %119 = load i32, ptr %7, align 4, !tbaa !21
  %120 = zext i32 %119 to i64
  call void @OPENSSL_cleanse(ptr noundef %118, i64 noundef %120)
  store i32 0, ptr %10, align 4, !tbaa !21
  br label %121

121:                                              ; preds = %115, %112
  %122 = load ptr, ptr %11, align 8, !tbaa !9
  call void @UI_free(ptr noundef %122)
  %123 = load ptr, ptr %16, align 8, !tbaa !17
  call void @CRYPTO_free(ptr noundef %123, ptr noundef @.str.4, i32 noundef 221)
  %124 = load i32, ptr %10, align 4, !tbaa !21
  store i32 %124, ptr %5, align 4
  store i32 1, ptr %17, align 4
  br label %125

125:                                              ; preds = %121, %40, %21
  call void @llvm.lifetime.end.p0(i64 8, ptr %16) #5
  call void @llvm.lifetime.end.p0(i64 8, ptr %15) #5
  call void @llvm.lifetime.end.p0(i64 4, ptr %14) #5
  call void @llvm.lifetime.end.p0(i64 8, ptr %13) #5
  call void @llvm.lifetime.end.p0(i64 4, ptr %12) #5
  call void @llvm.lifetime.end.p0(i64 8, ptr %11) #5
  call void @llvm.lifetime.end.p0(i64 4, ptr %10) #5
  %126 = load i32, ptr %5, align 4
  ret i32 %126
}