; Function Attrs: nounwind uwtable
define dso_local i32 @password_callback(ptr noundef %0, i32 noundef %1, i32 noundef %2, ptr noundef %3) local_unnamed_addr #0 {
  %5 = load ptr, ptr @ui_method, align 8, !tbaa !4
  %6 = tail call ptr @UI_new_method(ptr noundef %5) #5
  %7 = icmp eq ptr %6, null
  br i1 %7, label %51, label %8

8:                                                ; preds = %4
  %.not = icmp eq ptr %3, null
  br i1 %.not, label %12, label %9

9:                                                ; preds = %8
  %10 = getelementptr inbounds nuw i8, ptr %3, i64 8
  %11 = load ptr, ptr %10, align 8, !tbaa !12
  br label %12

12:                                               ; preds = %9, %8
  %.043 = phi ptr [ null, %8 ], [ %11, %9 ]
  %13 = tail call ptr @UI_construct_prompt(ptr noundef nonnull %6, ptr noundef nonnull @.str.1, ptr noundef %.043) #5
  %14 = icmp eq ptr %13, null
  br i1 %14, label %15, label %18

15:                                               ; preds = %12
  %16 = load ptr, ptr @bio_err, align 8, !tbaa !13
  %17 = tail call i32 (ptr, ptr, ...) @BIO_printf(ptr noundef %16, ptr noundef nonnull @.str.2) #5
  tail call void @UI_free(ptr noundef nonnull %6) #5
  br label %51

18:                                               ; preds = %12
  %19 = tail call i32 @UI_ctrl(ptr noundef nonnull %6, i32 noundef 1, i64 noundef 1, ptr noundef null, ptr noundef null) #5
  %20 = tail call ptr @UI_add_user_data(ptr noundef nonnull %6, ptr noundef %3) #5
  %21 = add nsw i32 %1, -1
  %22 = tail call i32 @UI_add_input_string(ptr noundef nonnull %6, ptr noundef nonnull %13, i32 noundef 2, ptr noundef %0, i32 noundef 4, i32 noundef %21) #5
  %23 = icmp sgt i32 %22, -1
  %24 = icmp ne i32 %2, 0
  %or.cond = and i1 %24, %23
  br i1 %or.cond, label %25, label %34

25:                                               ; preds = %18
  %26 = sext i32 %1 to i64
  %27 = tail call noalias ptr @CRYPTO_malloc(i64 noundef %26, ptr noundef nonnull @.str.4, i32 noundef 154) #5
  %28 = icmp eq ptr %27, null
  br i1 %28, label %29, label %ui_malloc.exit

29:                                               ; preds = %25
  %30 = load ptr, ptr @bio_err, align 8, !tbaa !13
  %31 = tail call i32 (ptr, ptr, ...) @BIO_printf(ptr noundef %30, ptr noundef nonnull @.str.8, i32 noundef %1, ptr noundef nonnull @.str.3) #5
  %32 = load ptr, ptr @bio_err, align 8, !tbaa !13
  tail call void @ERR_print_errors(ptr noundef %32) #5
  tail call void @exit(i32 noundef 1) #6
  unreachable

ui_malloc.exit:                                   ; preds = %25
  %33 = tail call i32 @UI_add_verify_string(ptr noundef nonnull %6, ptr noundef nonnull %13, i32 noundef 2, ptr noundef nonnull %27, i32 noundef 4, i32 noundef %21, ptr noundef %0) #5
  br label %34

34:                                               ; preds = %ui_malloc.exit, %18
  %.045 = phi i32 [ %33, %ui_malloc.exit ], [ %22, %18 ]
  %.044 = phi ptr [ %27, %ui_malloc.exit ], [ null, %18 ]
  %35 = icmp sgt i32 %.045, -1
  br i1 %35, label %.preheader, label %.loopexit

.preheader:                                       ; preds = %34, %38
  %36 = tail call i32 @UI_process(ptr noundef nonnull %6) #5
  %37 = icmp slt i32 %36, 0
  br i1 %37, label %38, label %.thread

38:                                               ; preds = %.preheader
  %39 = tail call i32 @UI_ctrl(ptr noundef nonnull %6, i32 noundef 2, i64 noundef 0, ptr noundef null, ptr noundef null) #5
  %.not55 = icmp eq i32 %39, 0
  br i1 %.not55, label %.loopexit, label %.preheader, !llvm.loop !15

.thread:                                          ; preds = %.preheader
  %40 = zext i32 %1 to i64
  tail call void @CRYPTO_clear_free(ptr noundef %.044, i64 noundef %40, ptr noundef nonnull @.str.4, i32 noundef 205) #5
  %41 = tail call i64 @strlen(ptr noundef nonnull dereferenceable(1) %0) #7
  %42 = trunc i64 %41 to i32
  br label %.thread61

.loopexit:                                        ; preds = %38, %34
  %.1.ph = phi i32 [ %.045, %34 ], [ %36, %38 ]
  %43 = zext i32 %1 to i64
  tail call void @CRYPTO_clear_free(ptr noundef %.044, i64 noundef %43, ptr noundef nonnull @.str.4, i32 noundef 205) #5
  switch i32 %.1.ph, label %.thread61 [
    i32 -1, label %44
    i32 -2, label %48
  ]

44:                                               ; preds = %.loopexit
  %45 = load ptr, ptr @bio_err, align 8, !tbaa !13
  %46 = tail call i32 (ptr, ptr, ...) @BIO_printf(ptr noundef %45, ptr noundef nonnull @.str.5) #5
  %47 = load ptr, ptr @bio_err, align 8, !tbaa !13
  tail call void @ERR_print_errors(ptr noundef %47) #5
  tail call void @OPENSSL_cleanse(ptr noundef %0, i64 noundef %43) #5
  br label %.thread61

48:                                               ; preds = %.loopexit
  %49 = load ptr, ptr @bio_err, align 8, !tbaa !13
  %50 = tail call i32 (ptr, ptr, ...) @BIO_printf(ptr noundef %49, ptr noundef nonnull @.str.6) #5
  tail call void @OPENSSL_cleanse(ptr noundef %0, i64 noundef %43) #5
  br label %.thread61

.thread61:                                        ; preds = %.loopexit, %.thread, %44, %48
  %.2 = phi i32 [ 0, %48 ], [ %42, %.thread ], [ 0, %44 ], [ 0, %.loopexit ]
  tail call void @UI_free(ptr noundef nonnull %6) #5
  tail call void @CRYPTO_free(ptr noundef nonnull %13, ptr noundef nonnull @.str.4, i32 noundef 221) #5
  br label %51

51:                                               ; preds = %4, %.thread61, %15
  %.0 = phi i32 [ 0, %15 ], [ %.2, %.thread61 ], [ 0, %4 ]
  ret i32 %.0
}